target datalayout = "e-m:e-p270:32:32-p271:32:32-p272:64:64-i64:64-i128:128-f80:128-n8:16:32:64-S128"
target triple = "x86_64-pc-linux-gnu"

%struct.CClassNode = type { i32, i32, ptr, i32, [8 x i32], ptr }
%struct._BBuf = type { ptr, i32, i32 }

; Function Attrs: nounwind uwtable
define dso_local i32 @onig_is_in_code_range(ptr noundef %0, i32 noundef %1) #0 {
  %3 = alloca ptr, align 8
  %4 = alloca i32, align 4
  %5 = alloca i32, align 4
  %6 = alloca ptr, align 8
  %7 = alloca i32, align 4
  %8 = alloca i32, align 4
  %9 = alloca i32, align 4
  store ptr %0, ptr %3, align 8, !tbaa !23
  store i32 %1, ptr %4, align 4, !tbaa !4
  call void @llvm.lifetime.start.p0(i64 4, ptr %5) #9
  call void @llvm.lifetime.start.p0(i64 8, ptr %6) #9
  call void @llvm.lifetime.start.p0(i64 4, ptr %7) #9
  call void @llvm.lifetime.start.p0(i64 4, ptr %8) #9
  call void @llvm.lifetime.start.p0(i64 4, ptr %9) #9
  %10 = load ptr, ptr %3, align 8, !tbaa !23
  %11 = load i32, ptr %10, align 4, !tbaa !4
  store i32 %11, ptr %5, align 4, !tbaa !4
  %12 = load ptr, ptr %3, align 8, !tbaa !23
  store ptr %12, ptr %6, align 8, !tbaa !104
  %13 = load ptr, ptr %6, align 8, !tbaa !104
  %14 = getelementptr inbounds nuw i32, ptr %13, i32 1
  store ptr %14, ptr %6, align 8, !tbaa !104
  store i32 0, ptr %7, align 4, !tbaa !4
  %15 = load i32, ptr %5, align 4, !tbaa !4
  store i32 %15, ptr %8, align 4, !tbaa !4
  br label %16

16:                                               ; preds = %39, %2
  %17 = load i32, ptr %7, align 4, !tbaa !4
  %18 = load i32, ptr %8, align 4, !tbaa !4
  %19 = icmp ult i32 %17, %18
  br i1 %19, label %20, label %40

20:                                               ; preds = %16
  %21 = load i32, ptr %7, align 4, !tbaa !4
  %22 = load i32, ptr %8, align 4, !tbaa !4
  %23 = add i32 %21, %22
  %24 = lshr i32 %23, 1
  store i32 %24, ptr %9, align 4, !tbaa !4
  %25 = load i32, ptr %4, align 4, !tbaa !4
  %26 = load ptr, ptr %6, align 8, !tbaa !104
  %27 = load i32, ptr %9, align 4, !tbaa !4
  %28 = mul i32 %27, 2
  %29 = add i32 %28, 1
  %30 = zext i32 %29 to i64
  %31 = getelementptr inbounds nuw i32, ptr %26, i64 %30
  %32 = load i32, ptr %31, align 4, !tbaa !4
  %33 = icmp ugt i32 %25, %32
  br i1 %33, label %34, label %37

34:                                               ; preds = %20
  %35 = load i32, ptr %9, align 4, !tbaa !4
  %36 = add i32 %35, 1
  store i32 %36, ptr %7, align 4, !tbaa !4
  br label %39

37:                                               ; preds = %20
  %38 = load i32, ptr %9, align 4, !tbaa !4
  store i32 %38, ptr %8, align 4, !tbaa !4
  br label %39

39:                                               ; preds = %37, %34
  br label %16, !llvm.loop !130

40:                                               ; preds = %16
  %41 = load i32, ptr %7, align 4, !tbaa !4
  %42 = load i32, ptr %5, align 4, !tbaa !4
  %43 = icmp ult i32 %41, %42
  br i1 %43, label %44, label %53

44:                                               ; preds = %40
  %45 = load i32, ptr %4, align 4, !tbaa !4
  %46 = load ptr, ptr %6, align 8, !tbaa !104
  %47 = load i32, ptr %7, align 4, !tbaa !4
  %48 = mul i32 %47, 2
  %49 = zext i32 %48 to i64
  %50 = getelementptr inbounds nuw i32, ptr %46, i64 %49
  %51 = load i32, ptr %50, align 4, !tbaa !4
  %52 = icmp uge i32 %45, %51
  br label %53

53:                                               ; preds = %44, %40
  %54 = phi i1 [ false, %40 ], [ %52, %44 ]
  %55 = select i1 %54, i32 1, i32 0
  call void @llvm.lifetime.end.p0(i64 4, ptr %9) #9
  call void @llvm.lifetime.end.p0(i64 4, ptr %8) #9
  call void @llvm.lifetime.end.p0(i64 4, ptr %7) #9
  call void @llvm.lifetime.end.p0(i64 8, ptr %6) #9
  call void @llvm.lifetime.end.p0(i64 4, ptr %5) #9
  ret i32 %55
}

; Function Attrs: nounwind uwtable
define dso_local i32 @onig_is_code_in_cc_len(i32 noundef %0, i32 noundef %1, ptr noundef %2) #0 {
  %4 = alloca i32, align 4
  %5 = alloca i32, align 4
  %6 = alloca i32, align 4
  %7 = alloca ptr, align 8
  %8 = alloca i32, align 4
  %9 = alloca ptr, align 8
  %10 = alloca i32, align 4
  store i32 %0, ptr %5, align 4, !tbaa !4
  store i32 %1, ptr %6, align 4, !tbaa !4
  store ptr %2, ptr %7, align 8, !tbaa !15
  call void @llvm.lifetime.start.p0(i64 4, ptr %8) #9
  call void @llvm.lifetime.start.p0(i64 8, ptr %9) #9
  %11 = load ptr, ptr %7, align 8, !tbaa !15
  store ptr %11, ptr %9, align 8, !tbaa !15
  %12 = load i32, ptr %5, align 4, !tbaa !4
  %13 = icmp sgt i32 %12, 1
  br i1 %13, label %17, label %14

14:                                               ; preds = %3
  %15 = load i32, ptr %6, align 4, !tbaa !4
  %16 = icmp uge i32 %15, 256
  br i1 %16, label %17, label %34

17:                                               ; preds = %14, %3
  %18 = load ptr, ptr %9, align 8, !tbaa !15
  %19 = getelementptr inbounds nuw %struct.CClassNode, ptr %18, i32 0, i32 5
  %20 = load ptr, ptr %19, align 8, !tbaa !131
  %21 = icmp eq ptr %20, null
  br i1 %21, label %22, label %23

22:                                               ; preds = %17
  store i32 0, ptr %8, align 4, !tbaa !4
  br label %33

23:                                               ; preds = %17
  %24 = load ptr, ptr %9, align 8, !tbaa !15
  %25 = getelementptr inbounds nuw %struct.CClassNode, ptr %24, i32 0, i32 5
  %26 = load ptr, ptr %25, align 8, !tbaa !131
  %27 = getelementptr inbounds nuw %struct._BBuf, ptr %26, i32 0, i32 0
  %28 = load ptr, ptr %27, align 8, !tbaa !134
  %29 = load i32, ptr %6, align 4, !tbaa !4
  %30 = call i32 @onig_is_in_code_range(ptr noundef %28, i32 noundef %29)
  %31 = icmp ne i32 %30, 0
  %32 = zext i1 %31 to i32
  store i32 %32, ptr %8, align 4, !tbaa !4
  br label %33

33:                                               ; preds = %23, %22
  br label %48

34:                                               ; preds = %14
  %35 = load ptr, ptr %9, align 8, !tbaa !15
  %36 = getelementptr inbounds nuw %struct.CClassNode, ptr %35, i32 0, i32 4
  %37 = load i32, ptr %6, align 4, !tbaa !4
  %38 = lshr i32 %37, 5
  %39 = zext i32 %38 to i64
  %40 = getelementptr inbounds nuw [8 x i32], ptr %36, i64 0, i64 %39
  %41 = load i32, ptr %40, align 4, !tbaa !4
  %42 = load i32, ptr %6, align 4, !tbaa !4
  %43 = and i32 %42, 31
  %44 = shl i32 1, %43
  %45 = and i32 %41, %44
  %46 = icmp ne i32 %45, 0
  %47 = zext i1 %46 to i32
  store i32 %47, ptr %8, align 4, !tbaa !4
  br label %48

48:                                               ; preds = %34, %33
  %49 = load ptr, ptr %9, align 8, !tbaa !15
  %50 = getelementptr inbounds nuw %struct.CClassNode, ptr %49, i32 0, i32 3
  %51 = load i32, ptr %50, align 8, !tbaa !136
  %52 = and i32 %51, 1
  %53 = icmp ne i32 %52, 0
  br i1 %53, label %54, label %59

54:                                               ; preds = %48
  %55 = load i32, ptr %8, align 4, !tbaa !4
  %56 = icmp ne i32 %55, 0
  %57 = xor i1 %56, true
  %58 = zext i1 %57 to i32
  store i32 %58, ptr %4, align 4
  store i32 1, ptr %10, align 4
  br label %61

59:                                               ; preds = %48
  %60 = load i32, ptr %8, align 4, !tbaa !4
  store i32 %60, ptr %4, align 4
  store i32 1, ptr %10, align 4
  br label %61

61:                                               ; preds = %59, %54
  call void @llvm.lifetime.end.p0(i64 8, ptr %9) #9
  call void @llvm.lifetime.end.p0(i64 4, ptr %8) #9
  %62 = load i32, ptr %4, align 4
  ret i32 %62
}